target datalayout = "e-m:e-p270:32:32-p271:32:32-p272:64:64-i64:64-i128:128-f80:128-n8:16:32:64-S128"
target triple = "x86_64-pc-linux-gnu"

; Function Attrs: nounwind uwtable
define i64 @av_strlcpy(ptr noundef %0, ptr noundef %1, i64 noundef %2) #0 {
  %4 = alloca ptr, align 8
  %5 = alloca ptr, align 8
  %6 = alloca i64, align 8
  %7 = alloca i64, align 8
  store ptr %0, ptr %4, align 8, !tbaa !4
  store ptr %1, ptr %5, align 8, !tbaa !4
  store i64 %2, ptr %6, align 8, !tbaa !19
  call void @llvm.lifetime.start.p0(i64 8, ptr %7) #11
  store i64 0, ptr %7, align 8, !tbaa !19
  br label %8

8:                                                ; preds = %20, %3
  %9 = load i64, ptr %7, align 8, !tbaa !19
  %10 = add i64 %9, 1
  store i64 %10, ptr %7, align 8, !tbaa !19
  %11 = load i64, ptr %6, align 8, !tbaa !19
  %12 = icmp ult i64 %10, %11
  br i1 %12, label %13, label %18

13:                                               ; preds = %8
  %14 = load ptr, ptr %5, align 8, !tbaa !4
  %15 = load i8, ptr %14, align 1, !tbaa !12
  %16 = sext i8 %15 to i32
  %17 = icmp ne i32 %16, 0
  br label %18

18:                                               ; preds = %13, %8
  %19 = phi i1 [ false, %8 ], [ %17, %13 ]
  br i1 %19, label %20, label %26

20:                                               ; preds = %18
  %21 = load ptr, ptr %5, align 8, !tbaa !4
  %22 = getelementptr inbounds nuw i8, ptr %21, i32 1
  store ptr %22, ptr %5, align 8, !tbaa !4
  %23 = load i8, ptr %21, align 1, !tbaa !12
  %24 = load ptr, ptr %4, align 8, !tbaa !4
  %25 = getelementptr inbounds nuw i8, ptr %24, i32 1
  store ptr %25, ptr %4, align 8, !tbaa !4
  store i8 %23, ptr %24, align 1, !tbaa !12
  br label %8, !llvm.loop !22

26:                                               ; preds = %18
  %27 = load i64, ptr %7, align 8, !tbaa !19
  %28 = load i64, ptr %6, align 8, !tbaa !19
  %29 = icmp ule i64 %27, %28
  br i1 %29, label %30, label %32

30:                                               ; preds = %26
  %31 = load ptr, ptr %4, align 8, !tbaa !4
  store i8 0, ptr %31, align 1, !tbaa !12
  br label %32

32:                                               ; preds = %30, %26
  %33 = load i64, ptr %7, align 8, !tbaa !19
  %34 = load ptr, ptr %5, align 8, !tbaa !4
  %35 = call i64 @strlen(ptr noundef %34) #12
  %36 = add i64 %33, %35
  %37 = sub i64 %36, 1
  call void @llvm.lifetime.end.p0(i64 8, ptr %7) #11
  ret i64 %37
}

; Function Attrs: nounwind uwtable
define ptr @av_append_path_component(ptr noundef %0, ptr noundef %1) #0 {
  %3 = alloca ptr, align 8
  %4 = alloca ptr, align 8
  %5 = alloca ptr, align 8
  %6 = alloca i64, align 8
  %7 = alloca i64, align 8
  %8 = alloca ptr, align 8
  %9 = alloca i32, align 4
  store ptr %0, ptr %4, align 8, !tbaa !4
  store ptr %1, ptr %5, align 8, !tbaa !4
  call void @llvm.lifetime.start.p0(i64 8, ptr %6) #11
  call void @llvm.lifetime.start.p0(i64 8, ptr %7) #11
  call void @llvm.lifetime.start.p0(i64 8, ptr %8) #11
  %10 = load ptr, ptr %4, align 8, !tbaa !4
  %11 = icmp ne ptr %10, null
  br i1 %11, label %15, label %12

12:                                               ; preds = %2
  %13 = load ptr, ptr %5, align 8, !tbaa !4
  %14 = call noalias ptr @av_strdup(ptr noundef %13)
  store ptr %14, ptr %3, align 8
  store i32 1, ptr %9, align 4
  br label %109

15:                                               ; preds = %2
  %16 = load ptr, ptr %5, align 8, !tbaa !4
  %17 = icmp ne ptr %16, null
  br i1 %17, label %21, label %18

18:                                               ; preds = %15
  %19 = load ptr, ptr %4, align 8, !tbaa !4
  %20 = call noalias ptr @av_strdup(ptr noundef %19)
  store ptr %20, ptr %3, align 8
  store i32 1, ptr %9, align 4
  br label %109

21:                                               ; preds = %15
  %22 = load ptr, ptr %4, align 8, !tbaa !4
  %23 = call i64 @strlen(ptr noundef %22) #12
  store i64 %23, ptr %6, align 8, !tbaa !19
  %24 = load ptr, ptr %5, align 8, !tbaa !4
  %25 = call i64 @strlen(ptr noundef %24) #12
  store i64 %25, ptr %7, align 8, !tbaa !19
  %26 = load i64, ptr %6, align 8, !tbaa !19
  %27 = load i64, ptr %7, align 8, !tbaa !19
  %28 = sub i64 -1, %27
  %29 = icmp ugt i64 %26, %28
  br i1 %29, label %35, label %30

30:                                               ; preds = %21
  %31 = load i64, ptr %6, align 8, !tbaa !19
  %32 = load i64, ptr %7, align 8, !tbaa !19
  %33 = add i64 %31, %32
  %34 = icmp ugt i64 %33, -3
  br i1 %34, label %35, label %36

35:                                               ; preds = %30, %21
  store ptr null, ptr %3, align 8
  store i32 1, ptr %9, align 4
  br label %109

36:                                               ; preds = %30
  %37 = load i64, ptr %6, align 8, !tbaa !19
  %38 = load i64, ptr %7, align 8, !tbaa !19
  %39 = add i64 %37, %38
  %40 = add i64 %39, 2
  %41 = call noalias ptr @av_malloc(i64 noundef %40)
  store ptr %41, ptr %8, align 8, !tbaa !4
  %42 = load ptr, ptr %8, align 8, !tbaa !4
  %43 = icmp ne ptr %42, null
  br i1 %43, label %44, label %107

44:                                               ; preds = %36
  %45 = load i64, ptr %6, align 8, !tbaa !19
  %46 = icmp ne i64 %45, 0
  br i1 %46, label %47, label %94

47:                                               ; preds = %44
  %48 = load ptr, ptr %8, align 8, !tbaa !4
  %49 = load ptr, ptr %4, align 8, !tbaa !4
  %50 = load i64, ptr %6, align 8, !tbaa !19
  %51 = add i64 %50, 1
  %52 = call i64 @av_strlcpy(ptr noundef %48, ptr noundef %49, i64 noundef %51)
  %53 = load i64, ptr %7, align 8, !tbaa !19
  %54 = icmp ne i64 %53, 0
  br i1 %54, label %55, label %93

55:                                               ; preds = %47
  %56 = load ptr, ptr %8, align 8, !tbaa !4
  %57 = load i64, ptr %6, align 8, !tbaa !19
  %58 = sub i64 %57, 1
  %59 = getelementptr inbounds nuw i8, ptr %56, i64 %58
  %60 = load i8, ptr %59, align 1, !tbaa !12
  %61 = sext i8 %60 to i32
  %62 = icmp ne i32 %61, 47
  br i1 %62, label %63, label %74

63:                                               ; preds = %55
  %64 = load ptr, ptr %5, align 8, !tbaa !4
  %65 = getelementptr inbounds i8, ptr %64, i64 0
  %66 = load i8, ptr %65, align 1, !tbaa !12
  %67 = sext i8 %66 to i32
  %68 = icmp ne i32 %67, 47
  br i1 %68, label %69, label %74

69:                                               ; preds = %63
  %70 = load ptr, ptr %8, align 8, !tbaa !4
  %71 = load i64, ptr %6, align 8, !tbaa !19
  %72 = add i64 %71, 1
  store i64 %72, ptr %6, align 8, !tbaa !19
  %73 = getelementptr inbounds nuw i8, ptr %70, i64 %71
  store i8 47, ptr %73, align 1, !tbaa !12
  br label %92

74:                                               ; preds = %63, %55
  %75 = load ptr, ptr %8, align 8, !tbaa !4
  %76 = load i64, ptr %6, align 8, !tbaa !19
  %77 = sub i64 %76, 1
  %78 = getelementptr inbounds nuw i8, ptr %75, i64 %77
  %79 = load i8, ptr %78, align 1, !tbaa !12
  %80 = sext i8 %79 to i32
  %81 = icmp eq i32 %80, 47
  br i1 %81, label %82, label %91

82:                                               ; preds = %74
  %83 = load ptr, ptr %5, align 8, !tbaa !4
  %84 = getelementptr inbounds i8, ptr %83, i64 0
  %85 = load i8, ptr %84, align 1, !tbaa !12
  %86 = sext i8 %85 to i32
  %87 = icmp eq i32 %86, 47
  br i1 %87, label %88, label %91

88:                                               ; preds = %82
  %89 = load i64, ptr %6, align 8, !tbaa !19
  %90 = add i64 %89, -1
  store i64 %90, ptr %6, align 8, !tbaa !19
  br label %91

91:                                               ; preds = %88, %82, %74
  br label %92

92:                                               ; preds = %91, %69
  br label %93

93:                                               ; preds = %92, %47
  br label %94

94:                                               ; preds = %93, %44
  %95 = load ptr, ptr %8, align 8, !tbaa !4
  %96 = load i64, ptr %6, align 8, !tbaa !19
  %97 = getelementptr inbounds nuw i8, ptr %95, i64 %96
  %98 = load ptr, ptr %5, align 8, !tbaa !4
  %99 = load i64, ptr %7, align 8, !tbaa !19
  %100 = add i64 %99, 1
  %101 = call i64 @av_strlcpy(ptr noundef %97, ptr noundef %98, i64 noundef %100)
  %102 = load ptr, ptr %8, align 8, !tbaa !4
  %103 = load i64, ptr %6, align 8, !tbaa !19
  %104 = load i64, ptr %7, align 8, !tbaa !19
  %105 = add i64 %103, %104
  %106 = getelementptr inbounds nuw i8, ptr %102, i64 %105
  store i8 0, ptr %106, align 1, !tbaa !12
  br label %107

107:                                              ; preds = %94, %36
  %108 = load ptr, ptr %8, align 8, !tbaa !4
  store ptr %108, ptr %3, align 8
  store i32 1, ptr %9, align 4
  br label %109

109:                                              ; preds = %107, %35, %18, %12
  call void @llvm.lifetime.end.p0(i64 8, ptr %8) #11
  call void @llvm.lifetime.end.p0(i64 8, ptr %7) #11
  call void @llvm.lifetime.end.p0(i64 8, ptr %6) #11
  %110 = load ptr, ptr %3, align 8
  ret ptr %110
}