; Function Attrs: nounwind uwtable
define noalias ptr @av_append_path_component(ptr noundef %0, ptr noundef %1) local_unnamed_addr #9 {
  %.not = icmp eq ptr %0, null
  br i1 %.not, label %3, label %5

3:                                                ; preds = %2
  %4 = tail call noalias ptr @av_strdup(ptr noundef %1) #19
  br label %52

5:                                                ; preds = %2
  %.not41 = icmp eq ptr %1, null
  br i1 %.not41, label %6, label %8

6:                                                ; preds = %5
  %7 = tail call noalias ptr @av_strdup(ptr noundef nonnull %0) #19
  br label %52

8:                                                ; preds = %5
  %9 = tail call i64 @strlen(ptr noundef nonnull dereferenceable(1) %0) #18
  %10 = tail call i64 @strlen(ptr noundef nonnull dereferenceable(1) %1) #18
  %11 = xor i64 %10, -1
  %12 = icmp ugt i64 %9, %11
  br i1 %12, label %52, label %13

13:                                               ; preds = %8
  %14 = add i64 %10, %9
  %15 = icmp ugt i64 %14, -3
  br i1 %15, label %52, label %16

16:                                               ; preds = %13
  %17 = add nuw i64 %14, 2
  %18 = tail call noalias ptr @av_malloc(i64 noundef %17) #19
  %.not42 = icmp eq ptr %18, null
  br i1 %.not42, label %52, label %19

19:                                               ; preds = %16
  %.not43 = icmp eq i64 %9, 0
  br i1 %.not43, label %39, label %20

20:                                               ; preds = %19
  %21 = add i64 %9, 1
  %22 = icmp ugt i64 %21, 1
  br i1 %22, label %.lr.ph.i, label %.critedge.i

.lr.ph.i:                                         ; preds = %20, %25
  %23 = phi i64 [ %28, %25 ], [ 1, %20 ]
  %.0914.i = phi ptr [ %27, %25 ], [ %18, %20 ]
  %.01013.i = phi ptr [ %26, %25 ], [ %0, %20 ]
  %24 = load i8, ptr %.01013.i, align 1, !tbaa !4
  %.not.i = icmp eq i8 %24, 0
  br i1 %.not.i, label %.critedge.i, label %25

25:                                               ; preds = %.lr.ph.i
  %26 = getelementptr inbounds nuw i8, ptr %.01013.i, i64 1
  %27 = getelementptr inbounds nuw i8, ptr %.0914.i, i64 1
  store i8 %24, ptr %.0914.i, align 1, !tbaa !4
  %28 = add nuw i64 %23, 1
  %exitcond.not.i = icmp eq i64 %23, %9
  br i1 %exitcond.not.i, label %.critedge.thread.i, label %.lr.ph.i, !llvm.loop !15

.critedge.i:                                      ; preds = %.lr.ph.i, %20
  %.09.lcssa.i = phi ptr [ %18, %20 ], [ %.0914.i, %.lr.ph.i ]
  %.lcssa.i = phi i64 [ 1, %20 ], [ %23, %.lr.ph.i ]
  %.not12.i = icmp ugt i64 %.lcssa.i, %21
  br i1 %.not12.i, label %av_strlcpy.exit, label %.critedge.thread.i

.critedge.thread.i:                               ; preds = %25, %.critedge.i
  %.09.lcssa31.i = phi ptr [ %.09.lcssa.i, %.critedge.i ], [ %27, %25 ]
  store i8 0, ptr %.09.lcssa31.i, align 1, !tbaa !4
  br label %av_strlcpy.exit

av_strlcpy.exit:                                  ; preds = %.critedge.i, %.critedge.thread.i
  %.not44 = icmp eq i64 %10, 0
  %29 = getelementptr i8, ptr %18, i64 %9
  br i1 %.not44, label %.critedge.thread.i53, label %30

30:                                               ; preds = %av_strlcpy.exit
  %31 = getelementptr i8, ptr %29, i64 -1
  %32 = load i8, ptr %31, align 1, !tbaa !4
  %.not45 = icmp eq i8 %32, 47
  %33 = load i8, ptr %1, align 1, !tbaa !4
  %34 = icmp eq i8 %33, 47
  br i1 %.not45, label %37, label %35

35:                                               ; preds = %30
  br i1 %34, label %39, label %36

36:                                               ; preds = %35
  store i8 47, ptr %29, align 1, !tbaa !4
  br label %39

37:                                               ; preds = %30
  %38 = sext i1 %34 to i64
  %spec.select = add i64 %9, %38
  br label %39

39:                                               ; preds = %35, %37, %36, %19
  %.035 = phi i64 [ %21, %36 ], [ 0, %19 ], [ %spec.select, %37 ], [ %9, %35 ]
  %40 = getelementptr i8, ptr %18, i64 %.035
  %41 = add i64 %10, 1
  %42 = icmp ugt i64 %41, 1
  br i1 %42, label %.lr.ph.i60, label %.critedge.i47

.lr.ph.i60:                                       ; preds = %39, %45
  %43 = phi i64 [ %48, %45 ], [ 1, %39 ]
  %.0914.i62 = phi ptr [ %47, %45 ], [ %40, %39 ]
  %.01013.i63 = phi ptr [ %46, %45 ], [ %1, %39 ]
  %44 = load i8, ptr %.01013.i63, align 1, !tbaa !4
  %.not.i64 = icmp eq i8 %44, 0
  br i1 %.not.i64, label %.critedge.i47, label %45

45:                                               ; preds = %.lr.ph.i60
  %46 = getelementptr inbounds nuw i8, ptr %.01013.i63, i64 1
  %47 = getelementptr inbounds nuw i8, ptr %.0914.i62, i64 1
  store i8 %44, ptr %.0914.i62, align 1, !tbaa !4
  %48 = add nuw i64 %43, 1
  %exitcond.not.i65 = icmp eq i64 %43, %10
  br i1 %exitcond.not.i65, label %.critedge.thread.i53, label %.lr.ph.i60, !llvm.loop !15

.critedge.i47:                                    ; preds = %.lr.ph.i60, %39
  %.09.lcssa.i49 = phi ptr [ %40, %39 ], [ %.0914.i62, %.lr.ph.i60 ]
  %.lcssa.i51 = phi i64 [ 1, %39 ], [ %43, %.lr.ph.i60 ]
  %.not12.i52 = icmp ugt i64 %.lcssa.i51, %41
  br i1 %.not12.i52, label %av_strlcpy.exit66, label %.critedge.thread.i53

.critedge.thread.i53:                             ; preds = %45, %av_strlcpy.exit, %.critedge.i47
  %49 = phi ptr [ %40, %.critedge.i47 ], [ %29, %av_strlcpy.exit ], [ %40, %45 ]
  %.09.lcssa31.i55 = phi ptr [ %.09.lcssa.i49, %.critedge.i47 ], [ %29, %av_strlcpy.exit ], [ %47, %45 ]
  store i8 0, ptr %.09.lcssa31.i55, align 1, !tbaa !4
  br label %av_strlcpy.exit66

av_strlcpy.exit66:                                ; preds = %.critedge.i47, %.critedge.thread.i53
  %50 = phi ptr [ %49, %.critedge.thread.i53 ], [ %40, %.critedge.i47 ]
  %51 = getelementptr i8, ptr %50, i64 %10
  store i8 0, ptr %51, align 1, !tbaa !4
  br label %52

52:                                               ; preds = %16, %av_strlcpy.exit66, %8, %13, %6, %3
  %.0 = phi ptr [ %7, %6 ], [ %4, %3 ], [ null, %13 ], [ null, %8 ], [ %18, %av_strlcpy.exit66 ], [ null, %16 ]
  ret ptr %.0
}